; Function Attrs: mustprogress nounwind uwtable
define dso_local void @_ZN5clang14PredefinedExprC2ENS_4Stmt10EmptyShellEb(ptr nocapture noundef nonnull align 8 dereferenceable(16) %0, i1 noundef zeroext %1) unnamed_addr #1 align 2 {
  store i8 19, ptr %0, align 8
  %3 = load i8, ptr @_ZN5clang4Stmt17StatisticsEnabledE, align 1
  %4 = trunc i8 %3 to i1
  br i1 %4, label %5, label %_ZN5clang4ExprC2ENS_4Stmt9StmtClassENS1_10EmptyShellE.exit

5:                                                ; preds = %2
  tail call void @_ZN5clang4Stmt12addStmtClassENS0_9StmtClassE(i32 noundef 19) #28
  br label %_ZN5clang4ExprC2ENS_4Stmt9StmtClassENS1_10EmptyShellE.exit

_ZN5clang4ExprC2ENS_4Stmt9StmtClassENS1_10EmptyShellE.exit: ; preds = %2, %5
  %6 = getelementptr inbounds nuw i8, ptr %0, i64 8
  store i64 0, ptr %6, align 8
  %7 = load i32, ptr %0, align 8
  %8 = select i1 %1, i32 4194304, i32 0
  %9 = and i32 %7, -4194305
  %10 = or disjoint i32 %9, %8
  store i32 %10, ptr %0, align 8
  ret void
}